target datalayout = "e-m:e-p270:32:32-p271:32:32-p272:64:64-i64:64-i128:128-f80:128-n8:16:32:64-S128"
target triple = "x86_64-pc-linux-gnu"

@proto_register_srvloc.ett = internal global [3 x ptr] [ptr @ett_srvloc, ptr @ett_srvloc_attr, ptr @ett_srvloc_flags], align 16
@.str.198 = private unnamed_addr constant [26 x i8] c"Service Location Protocol\00", align 1
@.str.199 = private unnamed_addr constant [7 x i8] c"SRVLOC\00", align 1
@.str.200 = private unnamed_addr constant [7 x i8] c"srvloc\00", align 1
@proto_srvloc = internal global i32 0, align 4
@srvloc_handle = internal global ptr null, align 8
@.str.201 = private unnamed_addr constant [11 x i8] c"srvloc.tcp\00", align 1
@srvloc_tcp_handle = internal global ptr null, align 8
@.str.202 = private unnamed_addr constant [14 x i8] c"desegment_tcp\00", align 1
@.str.203 = private unnamed_addr constant [58 x i8] c"Reassemble SRVLOC messages spanning multiple TCP segments\00", align 1
@.str.204 = private unnamed_addr constant [207 x i8] c"Whether the SRVLOC dissector should reassemble messages spanning multiple TCP segments. To use this option, you must also enable \22Allow subdissectors to reassemble TCP streams\22 in the TCP protocol settings.\00", align 1
@srvloc_desegment = internal global i8 1, align 1

; Function Attrs: null_pointer_is_valid sspstrong uwtable
define hidden void @proto_register_srvloc() #0 {
  %1 = alloca ptr, align 8
  %2 = alloca ptr, align 8
  call void @llvm.lifetime.start.p0(i64 8, ptr %1) #7
  call void @llvm.lifetime.start.p0(i64 8, ptr %2) #7
  %3 = call i32 @proto_register_protocol(ptr noundef @.str.198, ptr noundef @.str.199, ptr noundef @.str.200)
  store i32 %3, ptr @proto_srvloc, align 4
  %4 = load i32, ptr @proto_srvloc, align 4
  call void @proto_register_field_array(i32 noundef %4, ptr noundef @proto_register_srvloc.hf, i32 noundef 113)
  call void @proto_register_subtree_array(ptr noundef @proto_register_srvloc.ett, i32 noundef 3)
  %5 = load i32, ptr @proto_srvloc, align 4
  %6 = call ptr @register_dissector(ptr noundef @.str.200, ptr noundef @dissect_srvloc, i32 noundef %5)
  store ptr %6, ptr @srvloc_handle, align 8
  %7 = load i32, ptr @proto_srvloc, align 4
  %8 = call ptr @register_dissector(ptr noundef @.str.201, ptr noundef @dissect_srvloc_tcp, i32 noundef %7)
  store ptr %8, ptr @srvloc_tcp_handle, align 8
  %9 = load i32, ptr @proto_srvloc, align 4
  %10 = call ptr @expert_register_protocol(i32 noundef %9)
  store ptr %10, ptr %2, align 8
  %11 = load ptr, ptr %2, align 8
  call void @expert_register_field_array(ptr noundef %11, ptr noundef @proto_register_srvloc.ei, i32 noundef 4)
  %12 = load i32, ptr @proto_srvloc, align 4
  %13 = call ptr @prefs_register_protocol(i32 noundef %12, ptr noundef null)
  store ptr %13, ptr %1, align 8
  %14 = load ptr, ptr %1, align 8
  call void @prefs_register_bool_preference(ptr noundef %14, ptr noundef @.str.202, ptr noundef @.str.203, ptr noundef @.str.204, ptr noundef @srvloc_desegment)
  call void @llvm.lifetime.end.p0(i64 8, ptr %2) #7
  call void @llvm.lifetime.end.p0(i64 8, ptr %1) #7
  ret void
}