; Function Attrs: null_pointer_is_valid sspstrong uwtable
define hidden void @proto_register_srvloc() local_unnamed_addr #0 {
  %1 = tail call i32 @proto_register_protocol(ptr noundef nonnull @.str.198, ptr noundef nonnull @.str.199, ptr noundef nonnull @.str.200)
  store i32 %1, ptr @proto_srvloc, align 4
  tail call void @proto_register_field_array(i32 noundef %1, ptr noundef nonnull @proto_register_srvloc.hf, i32 noundef 113)
  tail call void @proto_register_subtree_array(ptr noundef nonnull @proto_register_srvloc.ett, i32 noundef 3)
  %2 = load i32, ptr @proto_srvloc, align 4
  %3 = tail call ptr @register_dissector(ptr noundef nonnull @.str.200, ptr noundef nonnull @dissect_srvloc, i32 noundef %2)
  store ptr %3, ptr @srvloc_handle, align 8
  %4 = load i32, ptr @proto_srvloc, align 4
  %5 = tail call ptr @register_dissector(ptr noundef nonnull @.str.201, ptr noundef nonnull @dissect_srvloc_tcp, i32 noundef %4)
  store ptr %5, ptr @srvloc_tcp_handle, align 8
  %6 = load i32, ptr @proto_srvloc, align 4
  %7 = tail call ptr @expert_register_protocol(i32 noundef %6)
  tail call void @expert_register_field_array(ptr noundef %7, ptr noundef nonnull @proto_register_srvloc.ei, i32 noundef 4)
  %8 = load i32, ptr @proto_srvloc, align 4
  %9 = tail call ptr @prefs_register_protocol(i32 noundef %8, ptr noundef null)
  tail call void @prefs_register_bool_preference(ptr noundef %9, ptr noundef nonnull @.str.202, ptr noundef nonnull @.str.203, ptr noundef nonnull @.str.204, ptr noundef nonnull @srvloc_desegment)
  ret void
}